; ModuleID = '7/1230.cpp'
source_filename = "7/1230.cpp"
target datalayout = "e-m:e-p270:32:32-p271:32:32-p272:64:64-i64:64-f80:128-n8:16:32:64-S128"
target triple = "x86_64-pc-linux-gnu"

%"class.std::ios_base::Init" = type { i8 }
%"class.std::basic_istream" = type { i32 (...)**, i64, %"class.std::basic_ios" }
%"class.std::basic_ios" = type { %"class.std::ios_base", %"class.std::basic_ostream"*, i8, i8, %"class.std::basic_streambuf"*, %"class.std::ctype"*, %"class.std::num_put"*, %"class.std::num_get"* }
%"class.std::ios_base" = type { i32 (...)**, i64, i64, i32, i32, i32, %"struct.std::ios_base::_Callback_list"*, %"struct.std::ios_base::_Words", [8 x %"struct.std::ios_base::_Words"], i32, %"struct.std::ios_base::_Words"*, %"class.std::locale" }
%"struct.std::ios_base::_Callback_list" = type { %"struct.std::ios_base::_Callback_list"*, void (i32, %"class.std::ios_base"*, i32)*, i32, i32 }
%"struct.std::ios_base::_Words" = type { i8*, i64 }
%"class.std::locale" = type { %"class.std::locale::_Impl"* }
%"class.std::locale::_Impl" = type { i32, %"class.std::locale::facet"**, i64, %"class.std::locale::facet"**, i8** }
%"class.std::locale::facet" = type <{ i32 (...)**, i32, [4 x i8] }>
%"class.std::basic_ostream" = type { i32 (...)**, %"class.std::basic_ios" }
%"class.std::basic_streambuf" = type { i32 (...)**, i8*, i8*, i8*, i8*, i8*, i8*, %"class.std::locale" }
%"class.std::ctype" = type <{ %"class.std::locale::facet.base", [4 x i8], %struct.__locale_struct*, i8, [7 x i8], i32*, i32*, i16*, i8, [256 x i8], [256 x i8], i8, [6 x i8] }>
%"class.std::locale::facet.base" = type <{ i32 (...)**, i32 }>
%struct.__locale_struct = type { [13 x %struct.__locale_data*], i16*, i32*, i32*, [13 x i8*] }
%struct.__locale_data = type opaque
%"class.std::num_put" = type { %"class.std::locale::facet.base", [4 x i8] }
%"class.std::num_get" = type { %"class.std::locale::facet.base", [4 x i8] }

@_ZStL8__ioinit = internal global %"class.std::ios_base::Init" zeroinitializer, align 1
@__dso_handle = external hidden global i8
@_ZSt3cin = external dso_local global %"class.std::basic_istream", align 8
@_ZSt4cout = external dso_local global %"class.std::basic_ostream", align 8
@llvm.global_ctors = appending global [1 x { i32, void ()*, i8* }] [{ i32, void ()*, i8* } { i32 65535, void ()* @_GLOBAL__sub_I_1230.cpp, i8* null }]

; Function Attrs: noinline uwtable
define internal void @__cxx_global_var_init() #0 section ".text.startup" {
  call void @_ZNSt8ios_base4InitC1Ev(%"class.std::ios_base::Init"* @_ZStL8__ioinit)
  %1 = call i32 @__cxa_atexit(void (i8*)* bitcast (void (%"class.std::ios_base::Init"*)* @_ZNSt8ios_base4InitD1Ev to void (i8*)*), i8* getelementptr inbounds (%"class.std::ios_base::Init", %"class.std::ios_base::Init"* @_ZStL8__ioinit, i32 0, i32 0), i8* @__dso_handle) #3
  ret void
}

declare dso_local void @_ZNSt8ios_base4InitC1Ev(%"class.std::ios_base::Init"*) unnamed_addr #1

; Function Attrs: nounwind
declare dso_local void @_ZNSt8ios_base4InitD1Ev(%"class.std::ios_base::Init"*) unnamed_addr #2

; Function Attrs: nounwind
declare dso_local i32 @__cxa_atexit(void (i8*)*, i8*, i8*) #3

; Function Attrs: noinline norecurse uwtable
define dso_local i32 @main() #4 {
  %1 = alloca i32, align 4
  %2 = alloca [256 x i8], align 16
  %3 = alloca [256 x i8], align 16
  %4 = alloca [256 x i8], align 16
  %5 = alloca i32, align 4
  %6 = alloca i32, align 4
  %7 = alloca i32, align 4
  %8 = alloca i32, align 4
  store i32 0, i32* %1, align 4
  %9 = getelementptr inbounds [256 x i8], [256 x i8]* %2, i64 0, i64 0
  %10 = call dereferenceable(280) %"class.std::basic_istream"* @_ZStrsIcSt11char_traitsIcEERSt13basic_istreamIT_T0_ES6_PS3_(%"class.std::basic_istream"* dereferenceable(280) @_ZSt3cin, i8* %9)
  %11 = getelementptr inbounds [256 x i8], [256 x i8]* %3, i64 0, i64 0
  %12 = call dereferenceable(280) %"class.std::basic_istream"* @_ZStrsIcSt11char_traitsIcEERSt13basic_istreamIT_T0_ES6_PS3_(%"class.std::basic_istream"* dereferenceable(280) %10, i8* %11)
  %13 = getelementptr inbounds [256 x i8], [256 x i8]* %4, i64 0, i64 0
  %14 = call dereferenceable(280) %"class.std::basic_istream"* @_ZStrsIcSt11char_traitsIcEERSt13basic_istreamIT_T0_ES6_PS3_(%"class.std::basic_istream"* dereferenceable(280) %12, i8* %13)
  store i32 0, i32* %5, align 4
  store i32 0, i32* %6, align 4
  %15 = getelementptr inbounds [256 x i8], [256 x i8]* %2, i64 0, i64 0
  %16 = call i64 @strlen(i8* %15) #6
  %17 = trunc i64 %16 to i32
  store i32 %17, i32* %7, align 4
  %18 = getelementptr inbounds [256 x i8], [256 x i8]* %3, i64 0, i64 0
  %19 = call i64 @strlen(i8* %18) #6
  %20 = trunc i64 %19 to i32
  store i32 %20, i32* %8, align 4
  store i32 0, i32* %5, align 4
  br label %21

21:                                               ; preds = %73, %0
  %22 = load i32, i32* %5, align 4
  %23 = load i32, i32* %7, align 4
  %24 = icmp slt i32 %22, %23
  br i1 %24, label %25, label %76

25:                                               ; preds = %21
  store i32 0, i32* %6, align 4
  br label %26

26:                                               ; preds = %46, %25
  %27 = load i32, i32* %6, align 4
  %28 = load i32, i32* %8, align 4
  %29 = icmp slt i32 %27, %28
  br i1 %29, label %30, label %49

30:                                               ; preds = %26
  %31 = load i32, i32* %5, align 4
  %32 = load i32, i32* %6, align 4
  %33 = add nsw i32 %31, %32
  %34 = sext i32 %33 to i64
  %35 = getelementptr inbounds [256 x i8], [256 x i8]* %2, i64 0, i64 %34
  %36 = load i8, i8* %35, align 1
  %37 = sext i8 %36 to i32
  %38 = load i32, i32* %6, align 4
  %39 = sext i32 %38 to i64
  %40 = getelementptr inbounds [256 x i8], [256 x i8]* %3, i64 0, i64 %39
  %41 = load i8, i8* %40, align 1
  %42 = sext i8 %41 to i32
  %43 = icmp ne i32 %37, %42
  br i1 %43, label %44, label %45

44:                                               ; preds = %30
  br label %49

45:                                               ; preds = %30
  br label %46

46:                                               ; preds = %45
  %47 = load i32, i32* %6, align 4
  %48 = add nsw i32 %47, 1
  store i32 %48, i32* %6, align 4
  br label %26

49:                                               ; preds = %44, %26
  %50 = load i32, i32* %6, align 4
  %51 = load i32, i32* %8, align 4
  %52 = icmp eq i32 %50, %51
  br i1 %52, label %53, label %72

53:                                               ; preds = %49
  store i32 0, i32* %6, align 4
  br label %54

54:                                               ; preds = %68, %53
  %55 = load i32, i32* %6, align 4
  %56 = load i32, i32* %8, align 4
  %57 = icmp slt i32 %55, %56
  br i1 %57, label %58, label %71

58:                                               ; preds = %54
  %59 = load i32, i32* %6, align 4
  %60 = sext i32 %59 to i64
  %61 = getelementptr inbounds [256 x i8], [256 x i8]* %4, i64 0, i64 %60
  %62 = load i8, i8* %61, align 1
  %63 = load i32, i32* %5, align 4
  %64 = load i32, i32* %6, align 4
  %65 = add nsw i32 %63, %64
  %66 = sext i32 %65 to i64
  %67 = getelementptr inbounds [256 x i8], [256 x i8]* %2, i64 0, i64 %66
  store i8 %62, i8* %67, align 1
  br label %68

68:                                               ; preds = %58
  %69 = load i32, i32* %6, align 4
  %70 = add nsw i32 %69, 1
  store i32 %70, i32* %6, align 4
  br label %54

71:                                               ; preds = %54
  br label %76

72:                                               ; preds = %49
  br label %73

73:                                               ; preds = %72
  %74 = load i32, i32* %5, align 4
  %75 = add nsw i32 %74, 1
  store i32 %75, i32* %5, align 4
  br label %21

76:                                               ; preds = %71, %21
  store i32 0, i32* %5, align 4
  br label %77

77:                                               ; preds = %87, %76
  %78 = load i32, i32* %5, align 4
  %79 = load i32, i32* %7, align 4
  %80 = icmp slt i32 %78, %79
  br i1 %80, label %81, label %90

81:                                               ; preds = %77
  %82 = load i32, i32* %5, align 4
  %83 = sext i32 %82 to i64
  %84 = getelementptr inbounds [256 x i8], [256 x i8]* %2, i64 0, i64 %83
  %85 = load i8, i8* %84, align 1
  %86 = call dereferenceable(272) %"class.std::basic_ostream"* @_ZStlsISt11char_traitsIcEERSt13basic_ostreamIcT_ES5_c(%"class.std::basic_ostream"* dereferenceable(272) @_ZSt4cout, i8 signext %85)
  br label %87

87:                                               ; preds = %81
  %88 = load i32, i32* %5, align 4
  %89 = add nsw i32 %88, 1
  store i32 %89, i32* %5, align 4
  br label %77

90:                                               ; preds = %77
  %91 = call dereferenceable(272) %"class.std::basic_ostream"* @_ZNSolsEPFRSoS_E(%"class.std::basic_ostream"* @_ZSt4cout, %"class.std::basic_ostream"* (%"class.std::basic_ostream"*)* @_ZSt4endlIcSt11char_traitsIcEERSt13basic_ostreamIT_T0_ES6_)
  ret i32 0
}

declare dso_local dereferenceable(280) %"class.std::basic_istream"* @_ZStrsIcSt11char_traitsIcEERSt13basic_istreamIT_T0_ES6_PS3_(%"class.std::basic_istream"* dereferenceable(280), i8*) #1

; Function Attrs: nounwind readonly
declare dso_local i64 @strlen(i8*) #5

declare dso_local dereferenceable(272) %"class.std::basic_ostream"* @_ZStlsISt11char_traitsIcEERSt13basic_ostreamIcT_ES5_c(%"class.std::basic_ostream"* dereferenceable(272), i8 signext) #1

declare dso_local dereferenceable(272) %"class.std::basic_ostream"* @_ZNSolsEPFRSoS_E(%"class.std::basic_ostream"*, %"class.std::basic_ostream"* (%"class.std::basic_ostream"*)*) #1

declare dso_local dereferenceable(272) %"class.std::basic_ostream"* @_ZSt4endlIcSt11char_traitsIcEERSt13basic_ostreamIT_T0_ES6_(%"class.std::basic_ostream"* dereferenceable(272)) #1

; Function Attrs: noinline uwtable
define internal void @_GLOBAL__sub_I_1230.cpp() #0 section ".text.startup" {
  call void @__cxx_global_var_init()
  ret void
}


!llvm.module.flags = !{!0}
!llvm.ident = !{!1}

!0 = !{i32 1, !"wchar_size", i32 4}
!1 = !{!"clang version 10.0.0-4ubuntu1 "}
